; Function Attrs: nounwind uwtable
define internal void @mddes(ptr noundef %0) #0 {
  %2 = getelementptr inbounds nuw i8, ptr %0, i64 248
  %3 = load ptr, ptr %2, align 8, !tbaa !171
  %.not = icmp eq ptr %3, null
  br i1 %.not, label %31, label %4

4:                                                ; preds = %1
  %5 = tail call i32 @pthread_mutex_lock(ptr noundef nonnull %3) #17
  %6 = icmp eq i32 %5, 35
  br i1 %6, label %7, label %pmix_obj_update.exit

7:                                                ; preds = %4
  %8 = tail call ptr @__errno_location() #19
  store i32 35, ptr %8, align 4, !tbaa !51
  tail call void @perror(ptr noundef nonnull @.str.56) #20
  tail call void @abort() #21
  unreachable

pmix_obj_update.exit:                             ; preds = %4
  %9 = getelementptr inbounds nuw i8, ptr %3, i64 48
  %10 = load i32, ptr %9, align 8, !tbaa !52
  %11 = add nsw i32 %10, -1
  store i32 %11, ptr %9, align 8, !tbaa !52
  %12 = tail call i32 @pthread_mutex_unlock(ptr noundef nonnull %3) #17
  %13 = icmp eq i32 %11, 0
  br i1 %13, label %14, label %31

14:                                               ; preds = %pmix_obj_update.exit
  %15 = getelementptr inbounds nuw i8, ptr %3, i64 40
  %16 = load ptr, ptr %15, align 8, !tbaa !53
  %17 = getelementptr inbounds nuw i8, ptr %16, i64 48
  %18 = load ptr, ptr %17, align 8, !tbaa !54
  %19 = load ptr, ptr %18, align 8, !tbaa !32
  %.not6.i = icmp eq ptr %19, null
  br i1 %.not6.i, label %pmix_obj_run_destructors.exit, label %.lr.ph.i

.lr.ph.i:                                         ; preds = %14, %.lr.ph.i
  %20 = phi ptr [ %22, %.lr.ph.i ], [ %19, %14 ]
  %.07.i = phi ptr [ %21, %.lr.ph.i ], [ %18, %14 ]
  tail call void %20(ptr noundef nonnull %3) #17
  %21 = getelementptr inbounds nuw i8, ptr %.07.i, i64 8
  %22 = load ptr, ptr %21, align 8, !tbaa !32
  %.not.i = icmp eq ptr %22, null
  br i1 %.not.i, label %pmix_obj_run_destructors.exit, label %.lr.ph.i, !llvm.loop !56

pmix_obj_run_destructors.exit:                    ; preds = %.lr.ph.i, %14
  %23 = getelementptr inbounds nuw i8, ptr %3, i64 96
  %24 = load ptr, ptr %23, align 8, !tbaa !57
  %.not17 = icmp eq ptr %24, null
  br i1 %.not17, label %28, label %25

25:                                               ; preds = %pmix_obj_run_destructors.exit
  %26 = getelementptr inbounds nuw i8, ptr %3, i64 56
  %27 = load ptr, ptr %2, align 8, !tbaa !171
  tail call void %24(ptr noundef nonnull %26, ptr noundef %27) #17
  br label %30

28:                                               ; preds = %pmix_obj_run_destructors.exit
  %29 = load ptr, ptr %2, align 8, !tbaa !171
  tail call void @free(ptr noundef %29) #17
  br label %30

30:                                               ; preds = %28, %25
  store ptr null, ptr %2, align 8, !tbaa !171
  br label %31

31:                                               ; preds = %pmix_obj_update.exit, %30, %1
  %32 = getelementptr inbounds nuw i8, ptr %0, i64 264
  %33 = load ptr, ptr %32, align 8, !tbaa !175
  %.not18 = icmp eq ptr %33, null
  br i1 %.not18, label %35, label %34

34:                                               ; preds = %31
  tail call void @free(ptr noundef nonnull %33) #17
  br label %35

35:                                               ; preds = %34, %31
  %36 = getelementptr inbounds nuw i8, ptr %0, i64 272
  %37 = load ptr, ptr %36, align 8, !tbaa !176
  %.not19 = icmp eq ptr %37, null
  br i1 %.not19, label %39, label %38

38:                                               ; preds = %35
  tail call void @PMIx_Data_buffer_release(ptr noundef nonnull %37) #17
  store ptr null, ptr %36, align 8, !tbaa !176
  br label %39

39:                                               ; preds = %38, %35
  %40 = getelementptr inbounds nuw i8, ptr %0, i64 280
  tail call void @PMIx_Byte_object_destruct(ptr noundef nonnull %40) #17
  ret void
}